target datalayout = "e-m:e-p270:32:32-p271:32:32-p272:64:64-i64:64-i128:128-f80:128-n8:16:32:64-S128"
target triple = "x86_64-pc-linux-gnu"

; Function Attrs: inlinehint mustprogress nounwind uwtable
define linkonce_odr noundef nonnull align 4 dereferenceable(4) ptr @_ZSt3maxIfERKT_S2_S2_(ptr noundef nonnull align 4 dereferenceable(4) %0, ptr noundef nonnull align 4 dereferenceable(4) %1) #4 comdat {
  %3 = alloca ptr, align 8
  %4 = alloca ptr, align 8
  %5 = alloca ptr, align 8
  store ptr %0, ptr %4, align 8, !tbaa !4
  store ptr %1, ptr %5, align 8, !tbaa !4
  %6 = load ptr, ptr %4, align 8, !tbaa !4
  %7 = load float, ptr %6, align 4, !tbaa !11
  %8 = load ptr, ptr %5, align 8, !tbaa !4
  %9 = load float, ptr %8, align 4, !tbaa !11
  %10 = fcmp olt float %7, %9
  br i1 %10, label %11, label %13

11:                                               ; preds = %2
  %12 = load ptr, ptr %5, align 8, !tbaa !4
  store ptr %12, ptr %3, align 8
  br label %15

13:                                               ; preds = %2
  %14 = load ptr, ptr %4, align 8, !tbaa !4
  store ptr %14, ptr %3, align 8
  br label %15

15:                                               ; preds = %13, %11
  %16 = load ptr, ptr %3, align 8
  ret ptr %16
}

; Function Attrs: mustprogress nounwind uwtable
define internal noundef float @_ZN5faiss12quantize_lut12_GLOBAL__N_17tab_maxEPKfm(ptr noundef %0, i64 noundef %1) #2 {
  %3 = alloca ptr, align 8
  %4 = alloca i64, align 8
  %5 = alloca float, align 4
  %6 = alloca i32, align 4
  store ptr %0, ptr %3, align 8, !tbaa !4
  store i64 %1, ptr %4, align 8, !tbaa !9
  call void @llvm.lifetime.start.p0(i64 4, ptr %5) #15
  store float 0xFFF0000000000000, ptr %5, align 4, !tbaa !11
  call void @llvm.lifetime.start.p0(i64 4, ptr %6) #15
  store i32 0, ptr %6, align 4, !tbaa !13
  br label %7

7:                                                ; preds = %28, %2
  %8 = load i32, ptr %6, align 4, !tbaa !13
  %9 = sext i32 %8 to i64
  %10 = load i64, ptr %4, align 8, !tbaa !9
  %11 = icmp ult i64 %9, %10
  br i1 %11, label %13, label %12

12:                                               ; preds = %7
  call void @llvm.lifetime.end.p0(i64 4, ptr %6) #15
  br label %31

13:                                               ; preds = %7
  %14 = load ptr, ptr %3, align 8, !tbaa !4
  %15 = load i32, ptr %6, align 4, !tbaa !13
  %16 = sext i32 %15 to i64
  %17 = getelementptr inbounds float, ptr %14, i64 %16
  %18 = load float, ptr %17, align 4, !tbaa !11
  %19 = load float, ptr %5, align 4, !tbaa !11
  %20 = fcmp ogt float %18, %19
  br i1 %20, label %21, label %27

21:                                               ; preds = %13
  %22 = load ptr, ptr %3, align 8, !tbaa !4
  %23 = load i32, ptr %6, align 4, !tbaa !13
  %24 = sext i32 %23 to i64
  %25 = getelementptr inbounds float, ptr %22, i64 %24
  %26 = load float, ptr %25, align 4, !tbaa !11
  store float %26, ptr %5, align 4, !tbaa !11
  br label %27

27:                                               ; preds = %21, %13
  br label %28

28:                                               ; preds = %27
  %29 = load i32, ptr %6, align 4, !tbaa !13
  %30 = add nsw i32 %29, 1
  store i32 %30, ptr %6, align 4, !tbaa !13
  br label %7, !llvm.loop !27

31:                                               ; preds = %12
  %32 = load float, ptr %5, align 4, !tbaa !11
  call void @llvm.lifetime.end.p0(i64 4, ptr %5) #15
  ret float %32
}

; Function Attrs: mustprogress nounwind uwtable
define internal noundef float @_ZN5faiss12quantize_lut12_GLOBAL__N_17tab_minEPKfm(ptr noundef %0, i64 noundef %1) #2 {
  %3 = alloca ptr, align 8
  %4 = alloca i64, align 8
  %5 = alloca float, align 4
  %6 = alloca i32, align 4
  store ptr %0, ptr %3, align 8, !tbaa !4
  store i64 %1, ptr %4, align 8, !tbaa !9
  call void @llvm.lifetime.start.p0(i64 4, ptr %5) #15
  store float 0x7FF0000000000000, ptr %5, align 4, !tbaa !11
  call void @llvm.lifetime.start.p0(i64 4, ptr %6) #15
  store i32 0, ptr %6, align 4, !tbaa !13
  br label %7

7:                                                ; preds = %28, %2
  %8 = load i32, ptr %6, align 4, !tbaa !13
  %9 = sext i32 %8 to i64
  %10 = load i64, ptr %4, align 8, !tbaa !9
  %11 = icmp ult i64 %9, %10
  br i1 %11, label %13, label %12

12:                                               ; preds = %7
  call void @llvm.lifetime.end.p0(i64 4, ptr %6) #15
  br label %31

13:                                               ; preds = %7
  %14 = load ptr, ptr %3, align 8, !tbaa !4
  %15 = load i32, ptr %6, align 4, !tbaa !13
  %16 = sext i32 %15 to i64
  %17 = getelementptr inbounds float, ptr %14, i64 %16
  %18 = load float, ptr %17, align 4, !tbaa !11
  %19 = load float, ptr %5, align 4, !tbaa !11
  %20 = fcmp olt float %18, %19
  br i1 %20, label %21, label %27

21:                                               ; preds = %13
  %22 = load ptr, ptr %3, align 8, !tbaa !4
  %23 = load i32, ptr %6, align 4, !tbaa !13
  %24 = sext i32 %23 to i64
  %25 = getelementptr inbounds float, ptr %22, i64 %24
  %26 = load float, ptr %25, align 4, !tbaa !11
  store float %26, ptr %5, align 4, !tbaa !11
  br label %27

27:                                               ; preds = %21, %13
  br label %28

28:                                               ; preds = %27
  %29 = load i32, ptr %6, align 4, !tbaa !13
  %30 = add nsw i32 %29, 1
  store i32 %30, ptr %6, align 4, !tbaa !13
  br label %7, !llvm.loop !24

31:                                               ; preds = %12
  %32 = load float, ptr %5, align 4, !tbaa !11
  call void @llvm.lifetime.end.p0(i64 4, ptr %5) #15
  ret float %32
}

; Function Attrs: mustprogress nounwind uwtable
define noundef float @_ZN5faiss12quantize_lut22aq_estimate_norm_scaleEmmmPKf(i64 noundef %0, i64 noundef %1, i64 noundef %2, ptr noundef %3) #2 {
  %5 = alloca i64, align 8
  %6 = alloca i64, align 8
  %7 = alloca i64, align 8
  %8 = alloca ptr, align 8
  %9 = alloca float, align 4
  %10 = alloca i32, align 4
  %11 = alloca float, align 4
  %12 = alloca float, align 4
  %13 = alloca float, align 4
  %14 = alloca i32, align 4
  %15 = alloca float, align 4
  %16 = alloca float, align 4
  store i64 %0, ptr %5, align 8, !tbaa !9
  store i64 %1, ptr %6, align 8, !tbaa !9
  store i64 %2, ptr %7, align 8, !tbaa !9
  store ptr %3, ptr %8, align 8, !tbaa !4
  call void @llvm.lifetime.start.p0(i64 4, ptr %9) #15
  store float 0xFFF0000000000000, ptr %9, align 4, !tbaa !11
  call void @llvm.lifetime.start.p0(i64 4, ptr %10) #15
  store i32 0, ptr %10, align 4, !tbaa !13
  br label %17

17:                                               ; preds = %46, %4
  %18 = load i32, ptr %10, align 4, !tbaa !13
  %19 = sext i32 %18 to i64
  %20 = load i64, ptr %5, align 8, !tbaa !9
  %21 = load i64, ptr %7, align 8, !tbaa !9
  %22 = sub i64 %20, %21
  %23 = icmp ult i64 %19, %22
  br i1 %23, label %25, label %24

24:                                               ; preds = %17
  call void @llvm.lifetime.end.p0(i64 4, ptr %10) #15
  br label %49

25:                                               ; preds = %17
  call void @llvm.lifetime.start.p0(i64 4, ptr %11) #15
  %26 = load ptr, ptr %8, align 8, !tbaa !4
  %27 = load i32, ptr %10, align 4, !tbaa !13
  %28 = sext i32 %27 to i64
  %29 = load i64, ptr %6, align 8, !tbaa !9
  %30 = mul i64 %28, %29
  %31 = getelementptr inbounds nuw float, ptr %26, i64 %30
  %32 = load i64, ptr %6, align 8, !tbaa !9
  %33 = call noundef float @_ZN5faiss12quantize_lut12_GLOBAL__N_17tab_minEPKfm(ptr noundef %31, i64 noundef %32)
  store float %33, ptr %11, align 4, !tbaa !11
  call void @llvm.lifetime.start.p0(i64 4, ptr %12) #15
  %34 = load ptr, ptr %8, align 8, !tbaa !4
  %35 = load i32, ptr %10, align 4, !tbaa !13
  %36 = sext i32 %35 to i64
  %37 = load i64, ptr %6, align 8, !tbaa !9
  %38 = mul i64 %36, %37
  %39 = getelementptr inbounds nuw float, ptr %34, i64 %38
  %40 = load i64, ptr %6, align 8, !tbaa !9
  %41 = call noundef float @_ZN5faiss12quantize_lut12_GLOBAL__N_17tab_maxEPKfm(ptr noundef %39, i64 noundef %40)
  %42 = load float, ptr %11, align 4, !tbaa !11
  %43 = fsub float %41, %42
  store float %43, ptr %12, align 4, !tbaa !11
  %44 = call noundef nonnull align 4 dereferenceable(4) ptr @_ZSt3maxIfERKT_S2_S2_(ptr noundef nonnull align 4 dereferenceable(4) %9, ptr noundef nonnull align 4 dereferenceable(4) %12)
  %45 = load float, ptr %44, align 4, !tbaa !11
  store float %45, ptr %9, align 4, !tbaa !11
  call void @llvm.lifetime.end.p0(i64 4, ptr %12) #15
  call void @llvm.lifetime.end.p0(i64 4, ptr %11) #15
  br label %46

46:                                               ; preds = %25
  %47 = load i32, ptr %10, align 4, !tbaa !13
  %48 = add nsw i32 %47, 1
  store i32 %48, ptr %10, align 4, !tbaa !13
  br label %17, !llvm.loop !95

49:                                               ; preds = %24
  call void @llvm.lifetime.start.p0(i64 4, ptr %13) #15
  store float 0xFFF0000000000000, ptr %13, align 4, !tbaa !11
  call void @llvm.lifetime.start.p0(i64 4, ptr %14) #15
  %50 = load i64, ptr %5, align 8, !tbaa !9
  %51 = load i64, ptr %7, align 8, !tbaa !9
  %52 = sub i64 %50, %51
  %53 = trunc i64 %52 to i32
  store i32 %53, ptr %14, align 4, !tbaa !13
  br label %54

54:                                               ; preds = %81, %49
  %55 = load i32, ptr %14, align 4, !tbaa !13
  %56 = sext i32 %55 to i64
  %57 = load i64, ptr %5, align 8, !tbaa !9
  %58 = icmp ult i64 %56, %57
  br i1 %58, label %60, label %59

59:                                               ; preds = %54
  call void @llvm.lifetime.end.p0(i64 4, ptr %14) #15
  br label %84

60:                                               ; preds = %54
  call void @llvm.lifetime.start.p0(i64 4, ptr %15) #15
  %61 = load ptr, ptr %8, align 8, !tbaa !4
  %62 = load i32, ptr %14, align 4, !tbaa !13
  %63 = sext i32 %62 to i64
  %64 = load i64, ptr %6, align 8, !tbaa !9
  %65 = mul i64 %63, %64
  %66 = getelementptr inbounds nuw float, ptr %61, i64 %65
  %67 = load i64, ptr %6, align 8, !tbaa !9
  %68 = call noundef float @_ZN5faiss12quantize_lut12_GLOBAL__N_17tab_minEPKfm(ptr noundef %66, i64 noundef %67)
  store float %68, ptr %15, align 4, !tbaa !11
  call void @llvm.lifetime.start.p0(i64 4, ptr %16) #15
  %69 = load ptr, ptr %8, align 8, !tbaa !4
  %70 = load i32, ptr %14, align 4, !tbaa !13
  %71 = sext i32 %70 to i64
  %72 = load i64, ptr %6, align 8, !tbaa !9
  %73 = mul i64 %71, %72
  %74 = getelementptr inbounds nuw float, ptr %69, i64 %73
  %75 = load i64, ptr %6, align 8, !tbaa !9
  %76 = call noundef float @_ZN5faiss12quantize_lut12_GLOBAL__N_17tab_maxEPKfm(ptr noundef %74, i64 noundef %75)
  %77 = load float, ptr %15, align 4, !tbaa !11
  %78 = fsub float %76, %77
  store float %78, ptr %16, align 4, !tbaa !11
  %79 = call noundef nonnull align 4 dereferenceable(4) ptr @_ZSt3maxIfERKT_S2_S2_(ptr noundef nonnull align 4 dereferenceable(4) %13, ptr noundef nonnull align 4 dereferenceable(4) %16)
  %80 = load float, ptr %79, align 4, !tbaa !11
  store float %80, ptr %13, align 4, !tbaa !11
  call void @llvm.lifetime.end.p0(i64 4, ptr %16) #15
  call void @llvm.lifetime.end.p0(i64 4, ptr %15) #15
  br label %81

81:                                               ; preds = %60
  %82 = load i32, ptr %14, align 4, !tbaa !13
  %83 = add nsw i32 %82, 1
  store i32 %83, ptr %14, align 4, !tbaa !13
  br label %54, !llvm.loop !96

84:                                               ; preds = %59
  %85 = load float, ptr %13, align 4, !tbaa !11
  %86 = load float, ptr %9, align 4, !tbaa !11
  %87 = fdiv float %85, %86
  call void @llvm.lifetime.end.p0(i64 4, ptr %13) #15
  call void @llvm.lifetime.end.p0(i64 4, ptr %9) #15
  ret float %87
}