; Function Attrs: mustprogress nofree norecurse nosync nounwind willreturn memory(argmem: read) uwtable
define noundef float @_ZN5faiss12quantize_lut22aq_estimate_norm_scaleEmmmPKf(i64 noundef %0, i64 noundef %1, i64 noundef %2, ptr noundef readonly captures(none) %3) local_unnamed_addr #12 {
  %5 = sub i64 %0, %2
  %.not = icmp eq i64 %0, %2
  br i1 %.not, label %._crit_edge, label %.lr.ph

.lr.ph:                                           ; preds = %4
  %.not.i = icmp eq i64 %1, 0
  br i1 %.not.i, label %._crit_edge78, label %.lr.ph.i.preheader

._crit_edge:                                      ; preds = %_ZN5faiss12quantize_lut12_GLOBAL__N_17tab_maxEPKfm.exit.loopexit, %4
  %.064.lcssa = phi float [ 0xFFF0000000000000, %4 ], [ %.sroa.speculated59, %_ZN5faiss12quantize_lut12_GLOBAL__N_17tab_maxEPKfm.exit.loopexit ]
  %sext = shl i64 %5, 32
  %6 = ashr exact i64 %sext, 32
  %7 = icmp ule i64 %0, %6
  %.not.i38 = icmp eq i64 %1, 0
  %or.cond = or i1 %7, %.not.i38
  br i1 %or.cond, label %._crit_edge78, label %.lr.ph.i39.preheader

.lr.ph.i.preheader:                               ; preds = %.lr.ph, %_ZN5faiss12quantize_lut12_GLOBAL__N_17tab_maxEPKfm.exit.loopexit
  %indvars.iv = phi i64 [ %indvars.iv.next, %_ZN5faiss12quantize_lut12_GLOBAL__N_17tab_maxEPKfm.exit.loopexit ], [ 0, %.lr.ph ]
  %.06470 = phi float [ %.sroa.speculated59, %_ZN5faiss12quantize_lut12_GLOBAL__N_17tab_maxEPKfm.exit.loopexit ], [ 0xFFF0000000000000, %.lr.ph ]
  %8 = mul i64 %indvars.iv, %1
  %9 = getelementptr inbounds nuw float, ptr %3, i64 %8
  br label %.lr.ph.i

.lr.ph.i:                                         ; preds = %.lr.ph.i.preheader, %.lr.ph.i
  %indvars.iv.i = phi i64 [ %indvars.iv.next.i, %.lr.ph.i ], [ 0, %.lr.ph.i.preheader ]
  %.0811.i = phi float [ %.1.i, %.lr.ph.i ], [ 0x7FF0000000000000, %.lr.ph.i.preheader ]
  %10 = getelementptr inbounds nuw float, ptr %9, i64 %indvars.iv.i
  %11 = load float, ptr %10, align 4, !tbaa !4
  %12 = fcmp olt float %11, %.0811.i
  %.1.i = select i1 %12, float %11, float %.0811.i
  %indvars.iv.next.i = add nuw nsw i64 %indvars.iv.i, 1
  %exitcond.not.i = icmp eq i64 %indvars.iv.next.i, %1
  br i1 %exitcond.not.i, label %.lr.ph.i31, label %.lr.ph.i, !llvm.loop !11

.lr.ph.i31:                                       ; preds = %.lr.ph.i, %.lr.ph.i31
  %indvars.iv.i32 = phi i64 [ %indvars.iv.next.i35, %.lr.ph.i31 ], [ 0, %.lr.ph.i ]
  %.0811.i33 = phi float [ %.1.i34, %.lr.ph.i31 ], [ 0xFFF0000000000000, %.lr.ph.i ]
  %13 = getelementptr inbounds nuw float, ptr %9, i64 %indvars.iv.i32
  %14 = load float, ptr %13, align 4, !tbaa !4
  %15 = fcmp ogt float %14, %.0811.i33
  %.1.i34 = select i1 %15, float %14, float %.0811.i33
  %indvars.iv.next.i35 = add nuw nsw i64 %indvars.iv.i32, 1
  %exitcond.not.i36 = icmp eq i64 %indvars.iv.next.i35, %1
  br i1 %exitcond.not.i36, label %_ZN5faiss12quantize_lut12_GLOBAL__N_17tab_maxEPKfm.exit.loopexit, label %.lr.ph.i31, !llvm.loop !12

_ZN5faiss12quantize_lut12_GLOBAL__N_17tab_maxEPKfm.exit.loopexit: ; preds = %.lr.ph.i31
  %16 = fsub float %.1.i34, %.1.i
  %17 = fcmp olt float %.06470, %16
  %.sroa.speculated59 = select i1 %17, float %16, float %.06470
  %indvars.iv.next = add nuw nsw i64 %indvars.iv, 1
  %exitcond.not = icmp eq i64 %indvars.iv.next, %5
  br i1 %exitcond.not, label %._crit_edge, label %.lr.ph.i.preheader, !llvm.loop !52

._crit_edge78:                                    ; preds = %_ZN5faiss12quantize_lut12_GLOBAL__N_17tab_maxEPKfm.exit55.loopexit, %.lr.ph, %._crit_edge
  %.064.lcssa95 = phi float [ %.064.lcssa, %._crit_edge ], [ 0xFFF0000000000000, %.lr.ph ], [ %.064.lcssa, %_ZN5faiss12quantize_lut12_GLOBAL__N_17tab_maxEPKfm.exit55.loopexit ]
  %.065.lcssa = phi float [ 0xFFF0000000000000, %._crit_edge ], [ 0xFFF0000000000000, %.lr.ph ], [ %.sroa.speculated, %_ZN5faiss12quantize_lut12_GLOBAL__N_17tab_maxEPKfm.exit55.loopexit ]
  %18 = fdiv float %.065.lcssa, %.064.lcssa95
  ret float %18

.lr.ph.i39.preheader:                             ; preds = %._crit_edge, %_ZN5faiss12quantize_lut12_GLOBAL__N_17tab_maxEPKfm.exit55.loopexit
  %indvars.iv87 = phi i64 [ %indvars.iv.next88, %_ZN5faiss12quantize_lut12_GLOBAL__N_17tab_maxEPKfm.exit55.loopexit ], [ %6, %._crit_edge ]
  %.06574 = phi float [ %.sroa.speculated, %_ZN5faiss12quantize_lut12_GLOBAL__N_17tab_maxEPKfm.exit55.loopexit ], [ 0xFFF0000000000000, %._crit_edge ]
  %19 = mul i64 %indvars.iv87, %1
  %20 = getelementptr inbounds nuw float, ptr %3, i64 %19
  br label %.lr.ph.i39

.lr.ph.i39:                                       ; preds = %.lr.ph.i39.preheader, %.lr.ph.i39
  %indvars.iv.i40 = phi i64 [ %indvars.iv.next.i43, %.lr.ph.i39 ], [ 0, %.lr.ph.i39.preheader ]
  %.0811.i41 = phi float [ %.1.i42, %.lr.ph.i39 ], [ 0x7FF0000000000000, %.lr.ph.i39.preheader ]
  %21 = getelementptr inbounds nuw float, ptr %20, i64 %indvars.iv.i40
  %22 = load float, ptr %21, align 4, !tbaa !4
  %23 = fcmp olt float %22, %.0811.i41
  %.1.i42 = select i1 %23, float %22, float %.0811.i41
  %indvars.iv.next.i43 = add nuw nsw i64 %indvars.iv.i40, 1
  %exitcond.not.i44 = icmp eq i64 %indvars.iv.next.i43, %1
  br i1 %exitcond.not.i44, label %.lr.ph.i48, label %.lr.ph.i39, !llvm.loop !11

.lr.ph.i48:                                       ; preds = %.lr.ph.i39, %.lr.ph.i48
  %indvars.iv.i49 = phi i64 [ %indvars.iv.next.i52, %.lr.ph.i48 ], [ 0, %.lr.ph.i39 ]
  %.0811.i50 = phi float [ %.1.i51, %.lr.ph.i48 ], [ 0xFFF0000000000000, %.lr.ph.i39 ]
  %24 = getelementptr inbounds nuw float, ptr %20, i64 %indvars.iv.i49
  %25 = load float, ptr %24, align 4, !tbaa !4
  %26 = fcmp ogt float %25, %.0811.i50
  %.1.i51 = select i1 %26, float %25, float %.0811.i50
  %indvars.iv.next.i52 = add nuw nsw i64 %indvars.iv.i49, 1
  %exitcond.not.i53 = icmp eq i64 %indvars.iv.next.i52, %1
  br i1 %exitcond.not.i53, label %_ZN5faiss12quantize_lut12_GLOBAL__N_17tab_maxEPKfm.exit55.loopexit, label %.lr.ph.i48, !llvm.loop !12

_ZN5faiss12quantize_lut12_GLOBAL__N_17tab_maxEPKfm.exit55.loopexit: ; preds = %.lr.ph.i48
  %27 = fsub float %.1.i51, %.1.i42
  %28 = fcmp olt float %.06574, %27
  %.sroa.speculated = select i1 %28, float %27, float %.06574
  %indvars.iv.next88 = add nuw nsw i64 %indvars.iv87, 1
  %29 = icmp ugt i64 %0, %indvars.iv.next88
  br i1 %29, label %.lr.ph.i39.preheader, label %._crit_edge78, !llvm.loop !53
}